; Function Attrs: nounwind uwtable
define ptr @PKCS7_add_recipient(ptr noundef %0, ptr noundef %1) local_unnamed_addr #0 {
  %3 = tail call ptr @PKCS7_RECIP_INFO_new() #7
  %4 = icmp eq ptr %3, null
  br i1 %4, label %20, label %5

5:                                                ; preds = %2
  %6 = tail call i32 @PKCS7_RECIP_INFO_set(ptr noundef nonnull %3, ptr noundef %1)
  %7 = icmp slt i32 %6, 1
  br i1 %7, label %20, label %8

8:                                                ; preds = %5
  %9 = getelementptr inbounds nuw i8, ptr %0, i64 24
  %10 = load ptr, ptr %9, align 8, !tbaa !3
  %11 = tail call i32 @OBJ_obj2nid(ptr noundef %10) #7
  switch i32 %11, label %PKCS7_add_recipient_info.exit.thread [
    i32 24, label %PKCS7_add_recipient_info.exit
    i32 23, label %12
  ]

12:                                               ; preds = %8
  br label %PKCS7_add_recipient_info.exit

PKCS7_add_recipient_info.exit.thread:             ; preds = %8
  tail call void @ERR_new() #7
  tail call void @ERR_set_debug(ptr noundef nonnull @.str, i32 noundef 600, ptr noundef nonnull @__func__.PKCS7_add_recipient_info) #7
  tail call void (i32, i32, ptr, ...) @ERR_set_error(i32 noundef 33, i32 noundef 113, ptr noundef null) #7
  br label %20

PKCS7_add_recipient_info.exit:                    ; preds = %8, %12
  %.sink7.i = phi i64 [ 8, %12 ], [ 48, %8 ]
  %13 = getelementptr inbounds nuw i8, ptr %0, i64 32
  %14 = load ptr, ptr %13, align 8, !tbaa !14
  %15 = getelementptr inbounds nuw i8, ptr %14, i64 %.sink7.i
  %.0.i = load ptr, ptr %15, align 8, !tbaa !84
  %16 = tail call i32 @OPENSSL_sk_push(ptr noundef %.0.i, ptr noundef nonnull %3) #7
  %.not.i.not = icmp eq i32 %16, 0
  br i1 %.not.i.not, label %20, label %17

17:                                               ; preds = %PKCS7_add_recipient_info.exit
  %18 = getelementptr inbounds nuw i8, ptr %0, i64 40
  %19 = getelementptr inbounds nuw i8, ptr %3, i64 40
  store ptr %18, ptr %19, align 8, !tbaa !97
  br label %21

20:                                               ; preds = %PKCS7_add_recipient_info.exit.thread, %PKCS7_add_recipient_info.exit, %5, %2
  tail call void @PKCS7_RECIP_INFO_free(ptr noundef %3) #7
  br label %21

21:                                               ; preds = %20, %17
  %.0 = phi ptr [ null, %20 ], [ %3, %17 ]
  ret ptr %.0
}